target datalayout = "e-m:e-p270:32:32-p271:32:32-p272:64:64-i64:64-i128:128-f80:128-n8:16:32:64-S128"
target triple = "x86_64-pc-linux-gnu"

%"class.std::__cxx11::basic_string" = type { %"struct.std::__cxx11::basic_string<char>::_Alloc_hider", i64, %union.anon }
%"struct.std::__cxx11::basic_string<char>::_Alloc_hider" = type { ptr }
%union.anon = type { i64, [8 x i8] }
%"class.std::allocator.35" = type { i8 }

@_ZTISt9exception = external constant ptr
@.str.1 = private unnamed_addr constant [6 x i8] c"] at \00", align 1
@.str.3 = private unnamed_addr constant [3 x i8] c":\0A\00", align 1
@_ZTIN6casadi15CasadiExceptionE = linkonce_odr constant { ptr, ptr, ptr } { ptr getelementptr inbounds (ptr, ptr @_ZTVN10__cxxabiv120__si_class_type_infoE, i64 2), ptr @_ZTSN6casadi15CasadiExceptionE, ptr @_ZTISt9exception }, comdat, align 8
@.str.13 = private unnamed_addr constant [29 x i8] c"Error in Opti::set_initial [\00", align 1
@.str.14 = private unnamed_addr constant [121 x i8] c"generated/home/dtcxzyw/WorkSpace/Projects/compilers/llvm-opt-benchmark/bench/casadi/casadi/casadi/core/optistack.cpp:125\00", align 1

; Function Attrs: mustprogress uwtable
define linkonce_odr void @_ZStplIcSt11char_traitsIcESaIcEENSt7__cxx1112basic_stringIT_T0_T1_EEOS8_PKS5_(ptr dead_on_unwind noalias writable sret(%"class.std::__cxx11::basic_string") align 8 %0, ptr noundef nonnull align 8 dereferenceable(32) %1, ptr noundef %2) #4 comdat {
  %4 = alloca ptr, align 8
  %5 = alloca ptr, align 8
  %6 = alloca ptr, align 8
  store ptr %0, ptr %4, align 8
  store ptr %1, ptr %5, align 8
  store ptr %2, ptr %6, align 8
  %7 = load ptr, ptr %5, align 8
  %8 = load ptr, ptr %6, align 8
  %9 = call noundef nonnull align 8 dereferenceable(32) ptr @_ZNSt7__cxx1112basic_stringIcSt11char_traitsIcESaIcEE6appendEPKc(ptr noundef nonnull align 8 dereferenceable(32) %7, ptr noundef %8)
  call void @_ZNSt7__cxx1112basic_stringIcSt11char_traitsIcESaIcEEC1EOS4_(ptr noundef nonnull align 8 dereferenceable(32) %0, ptr noundef nonnull align 8 dereferenceable(32) %9) #3
  ret void
}

; Function Attrs: mustprogress uwtable
define linkonce_odr void @_ZStplIcSt11char_traitsIcESaIcEENSt7__cxx1112basic_stringIT_T0_T1_EEPKS5_OS8_(ptr dead_on_unwind noalias writable sret(%"class.std::__cxx11::basic_string") align 8 %0, ptr noundef %1, ptr noundef nonnull align 8 dereferenceable(32) %2) #4 comdat {
  %4 = alloca ptr, align 8
  %5 = alloca ptr, align 8
  %6 = alloca ptr, align 8
  store ptr %0, ptr %4, align 8
  store ptr %1, ptr %5, align 8
  store ptr %2, ptr %6, align 8
  %7 = load ptr, ptr %6, align 8
  %8 = load ptr, ptr %5, align 8
  %9 = call noundef nonnull align 8 dereferenceable(32) ptr @_ZNSt7__cxx1112basic_stringIcSt11char_traitsIcESaIcEE6insertEmPKc(ptr noundef nonnull align 8 dereferenceable(32) %7, i64 noundef 0, ptr noundef %8)
  call void @_ZNSt7__cxx1112basic_stringIcSt11char_traitsIcESaIcEEC1EOS4_(ptr noundef nonnull align 8 dereferenceable(32) %0, ptr noundef nonnull align 8 dereferenceable(32) %9) #3
  ret void
}

; Function Attrs: mustprogress uwtable
define noundef ptr @_ZN6casadi4OptiptEv(ptr noundef nonnull align 8 dereferenceable(8) %0) #4 align 2 {
  %2 = alloca ptr, align 8
  store ptr %0, ptr %2, align 8
  %3 = load ptr, ptr %2, align 8
  %4 = call noundef ptr @_ZNK6casadi12SharedObjectptEv(ptr noundef nonnull align 8 dereferenceable(8) %3)
  ret ptr %4
}

; Function Attrs: mustprogress uwtable
define void @_ZN6casadi4Opti11set_initialERKNS_2MXERKNS_6MatrixIdEE(ptr noundef nonnull align 8 dereferenceable(8) %0, ptr noundef nonnull align 8 dereferenceable(8) %1, ptr noundef nonnull align 8 dereferenceable(40) %2) #4 align 2 personality ptr @__gxx_personality_v0 {
  %4 = alloca ptr, align 8
  %5 = alloca ptr, align 8
  %6 = alloca ptr, align 8
  %7 = alloca ptr, align 8
  %8 = alloca i32, align 4
  %9 = alloca ptr, align 8
  %10 = alloca %"class.std::__cxx11::basic_string", align 8
  %11 = alloca %"class.std::__cxx11::basic_string", align 8
  %12 = alloca %"class.std::__cxx11::basic_string", align 8
  %13 = alloca %"class.std::__cxx11::basic_string", align 8
  %14 = alloca %"class.std::__cxx11::basic_string", align 8
  %15 = alloca %"class.std::__cxx11::basic_string", align 8
  %16 = alloca %"class.std::__cxx11::basic_string", align 8
  %17 = alloca %"class.std::__cxx11::basic_string", align 8
  %18 = alloca %"class.std::allocator.35", align 1
  %19 = alloca %"class.std::__cxx11::basic_string", align 8
  %20 = alloca %"class.std::allocator.35", align 1
  %21 = alloca i1, align 1
  store ptr %0, ptr %4, align 8
  store ptr %1, ptr %5, align 8
  store ptr %2, ptr %6, align 8
  %22 = load ptr, ptr %4, align 8
  %23 = invoke noundef ptr @_ZN6casadi4OptiptEv(ptr noundef nonnull align 8 dereferenceable(8) %22)
          to label %24 unwind label %28

24:                                               ; preds = %3
  %25 = load ptr, ptr %5, align 8
  %26 = load ptr, ptr %6, align 8
  invoke void @_ZN6casadi8OptiNode11set_initialERKNS_2MXERKNS_6MatrixIdEE(ptr noundef nonnull align 8 dereferenceable(672) %23, ptr noundef nonnull align 8 dereferenceable(8) %25, ptr noundef nonnull align 8 dereferenceable(40) %26)
          to label %27 unwind label %28

27:                                               ; preds = %24
  br label %108

28:                                               ; preds = %24, %3
  %29 = landingpad { ptr, i32 }
          catch ptr @_ZTISt9exception
  %30 = extractvalue { ptr, i32 } %29, 0
  store ptr %30, ptr %7, align 8
  %31 = extractvalue { ptr, i32 } %29, 1
  store i32 %31, ptr %8, align 4
  br label %32

32:                                               ; preds = %28
  %33 = load i32, ptr %8, align 4
  %34 = call i32 @llvm.eh.typeid.for(ptr @_ZTISt9exception) #3
  %35 = icmp eq i32 %33, %34
  br i1 %35, label %36, label %109

36:                                               ; preds = %32
  %37 = load ptr, ptr %7, align 8
  %38 = call ptr @__cxa_begin_catch(ptr %37) #3
  store ptr %38, ptr %9, align 8
  store i1 true, ptr %21, align 1
  %39 = call ptr @__cxa_allocate_exception(i64 40) #3
  invoke void @_ZNK6casadi12SharedObject10class_nameB5cxx11Ev(ptr dead_on_unwind writable sret(%"class.std::__cxx11::basic_string") align 8 %15, ptr noundef nonnull align 8 dereferenceable(8) %22)
          to label %40 unwind label %55

40:                                               ; preds = %36
  invoke void @_ZStplIcSt11char_traitsIcESaIcEENSt7__cxx1112basic_stringIT_T0_T1_EEPKS5_OS8_(ptr dead_on_unwind writable sret(%"class.std::__cxx11::basic_string") align 8 %14, ptr noundef @.str.13, ptr noundef nonnull align 8 dereferenceable(32) %15)
          to label %41 unwind label %59

41:                                               ; preds = %40
  invoke void @_ZStplIcSt11char_traitsIcESaIcEENSt7__cxx1112basic_stringIT_T0_T1_EEOS8_PKS5_(ptr dead_on_unwind writable sret(%"class.std::__cxx11::basic_string") align 8 %13, ptr noundef nonnull align 8 dereferenceable(32) %14, ptr noundef @.str.1)
          to label %42 unwind label %63

42:                                               ; preds = %41
  call void @_ZNSaIcEC1Ev(ptr noundef nonnull align 1 dereferenceable(1) %18) #3
  invoke void @_ZNSt7__cxx1112basic_stringIcSt11char_traitsIcESaIcEEC2IS3_EEPKcRKS3_(ptr noundef nonnull align 8 dereferenceable(32) %17, ptr noundef @.str.14, ptr noundef nonnull align 1 dereferenceable(1) %18)
          to label %43 unwind label %67

43:                                               ; preds = %42
  invoke void @_ZN6casadi9trim_pathERKNSt7__cxx1112basic_stringIcSt11char_traitsIcESaIcEEE(ptr dead_on_unwind writable sret(%"class.std::__cxx11::basic_string") align 8 %16, ptr noundef nonnull align 8 dereferenceable(32) %17)
          to label %44 unwind label %71

44:                                               ; preds = %43
  invoke void @_ZStplIcSt11char_traitsIcESaIcEENSt7__cxx1112basic_stringIT_T0_T1_EEOS8_S9_(ptr dead_on_unwind writable sret(%"class.std::__cxx11::basic_string") align 8 %12, ptr noundef nonnull align 8 dereferenceable(32) %13, ptr noundef nonnull align 8 dereferenceable(32) %16)
          to label %45 unwind label %75

45:                                               ; preds = %44
  invoke void @_ZStplIcSt11char_traitsIcESaIcEENSt7__cxx1112basic_stringIT_T0_T1_EEOS8_PKS5_(ptr dead_on_unwind writable sret(%"class.std::__cxx11::basic_string") align 8 %11, ptr noundef nonnull align 8 dereferenceable(32) %12, ptr noundef @.str.3)
          to label %46 unwind label %79

46:                                               ; preds = %45
  %47 = load ptr, ptr %9, align 8
  %48 = load ptr, ptr %47, align 8
  %49 = getelementptr inbounds ptr, ptr %48, i64 2
  %50 = load ptr, ptr %49, align 8
  %51 = call noundef ptr %50(ptr noundef nonnull align 8 dereferenceable(8) %47) #3
  call void @_ZNSaIcEC1Ev(ptr noundef nonnull align 1 dereferenceable(1) %20) #3
  invoke void @_ZNSt7__cxx1112basic_stringIcSt11char_traitsIcESaIcEEC2IS3_EEPKcRKS3_(ptr noundef nonnull align 8 dereferenceable(32) %19, ptr noundef %51, ptr noundef nonnull align 1 dereferenceable(1) %20)
          to label %52 unwind label %83

52:                                               ; preds = %46
  invoke void @_ZStplIcSt11char_traitsIcESaIcEENSt7__cxx1112basic_stringIT_T0_T1_EEOS8_S9_(ptr dead_on_unwind writable sret(%"class.std::__cxx11::basic_string") align 8 %10, ptr noundef nonnull align 8 dereferenceable(32) %11, ptr noundef nonnull align 8 dereferenceable(32) %19)
          to label %53 unwind label %87

53:                                               ; preds = %52
  invoke void @_ZN6casadi15CasadiExceptionC2ERKNSt7__cxx1112basic_stringIcSt11char_traitsIcESaIcEEE(ptr noundef nonnull align 8 dereferenceable(40) %39, ptr noundef nonnull align 8 dereferenceable(32) %10)
          to label %54 unwind label %91

54:                                               ; preds = %53
  store i1 false, ptr %21, align 1
  invoke void @__cxa_throw(ptr %39, ptr @_ZTIN6casadi15CasadiExceptionE, ptr @_ZN6casadi15CasadiExceptionD2Ev) #15
          to label %117 unwind label %91

55:                                               ; preds = %36
  %56 = landingpad { ptr, i32 }
          cleanup
  %57 = extractvalue { ptr, i32 } %56, 0
  store ptr %57, ptr %7, align 8
  %58 = extractvalue { ptr, i32 } %56, 1
  store i32 %58, ptr %8, align 4
  br label %103

59:                                               ; preds = %40
  %60 = landingpad { ptr, i32 }
          cleanup
  %61 = extractvalue { ptr, i32 } %60, 0
  store ptr %61, ptr %7, align 8
  %62 = extractvalue { ptr, i32 } %60, 1
  store i32 %62, ptr %8, align 4
  br label %102

63:                                               ; preds = %41
  %64 = landingpad { ptr, i32 }
          cleanup
  %65 = extractvalue { ptr, i32 } %64, 0
  store ptr %65, ptr %7, align 8
  %66 = extractvalue { ptr, i32 } %64, 1
  store i32 %66, ptr %8, align 4
  br label %101

67:                                               ; preds = %42
  %68 = landingpad { ptr, i32 }
          cleanup
  %69 = extractvalue { ptr, i32 } %68, 0
  store ptr %69, ptr %7, align 8
  %70 = extractvalue { ptr, i32 } %68, 1
  store i32 %70, ptr %8, align 4
  br label %100

71:                                               ; preds = %43
  %72 = landingpad { ptr, i32 }
          cleanup
  %73 = extractvalue { ptr, i32 } %72, 0
  store ptr %73, ptr %7, align 8
  %74 = extractvalue { ptr, i32 } %72, 1
  store i32 %74, ptr %8, align 4
  br label %99

75:                                               ; preds = %44
  %76 = landingpad { ptr, i32 }
          cleanup
  %77 = extractvalue { ptr, i32 } %76, 0
  store ptr %77, ptr %7, align 8
  %78 = extractvalue { ptr, i32 } %76, 1
  store i32 %78, ptr %8, align 4
  br label %98

79:                                               ; preds = %45
  %80 = landingpad { ptr, i32 }
          cleanup
  %81 = extractvalue { ptr, i32 } %80, 0
  store ptr %81, ptr %7, align 8
  %82 = extractvalue { ptr, i32 } %80, 1
  store i32 %82, ptr %8, align 4
  br label %97

83:                                               ; preds = %46
  %84 = landingpad { ptr, i32 }
          cleanup
  %85 = extractvalue { ptr, i32 } %84, 0
  store ptr %85, ptr %7, align 8
  %86 = extractvalue { ptr, i32 } %84, 1
  store i32 %86, ptr %8, align 4
  br label %96

87:                                               ; preds = %52
  %88 = landingpad { ptr, i32 }
          cleanup
  %89 = extractvalue { ptr, i32 } %88, 0
  store ptr %89, ptr %7, align 8
  %90 = extractvalue { ptr, i32 } %88, 1
  store i32 %90, ptr %8, align 4
  br label %95

91:                                               ; preds = %54, %53
  %92 = landingpad { ptr, i32 }
          cleanup
  %93 = extractvalue { ptr, i32 } %92, 0
  store ptr %93, ptr %7, align 8
  %94 = extractvalue { ptr, i32 } %92, 1
  store i32 %94, ptr %8, align 4
  call void @_ZNSt7__cxx1112basic_stringIcSt11char_traitsIcESaIcEED1Ev(ptr noundef nonnull align 8 dereferenceable(32) %10) #3
  br label %95

95:                                               ; preds = %91, %87
  call void @_ZNSt7__cxx1112basic_stringIcSt11char_traitsIcESaIcEED1Ev(ptr noundef nonnull align 8 dereferenceable(32) %19) #3
  br label %96

96:                                               ; preds = %95, %83
  call void @_ZNSaIcED1Ev(ptr noundef nonnull align 1 dereferenceable(1) %20) #3
  call void @_ZNSt7__cxx1112basic_stringIcSt11char_traitsIcESaIcEED1Ev(ptr noundef nonnull align 8 dereferenceable(32) %11) #3
  br label %97

97:                                               ; preds = %96, %79
  call void @_ZNSt7__cxx1112basic_stringIcSt11char_traitsIcESaIcEED1Ev(ptr noundef nonnull align 8 dereferenceable(32) %12) #3
  br label %98

98:                                               ; preds = %97, %75
  call void @_ZNSt7__cxx1112basic_stringIcSt11char_traitsIcESaIcEED1Ev(ptr noundef nonnull align 8 dereferenceable(32) %16) #3
  br label %99

99:                                               ; preds = %98, %71
  call void @_ZNSt7__cxx1112basic_stringIcSt11char_traitsIcESaIcEED1Ev(ptr noundef nonnull align 8 dereferenceable(32) %17) #3
  br label %100

100:                                              ; preds = %99, %67
  call void @_ZNSaIcED1Ev(ptr noundef nonnull align 1 dereferenceable(1) %18) #3
  call void @_ZNSt7__cxx1112basic_stringIcSt11char_traitsIcESaIcEED1Ev(ptr noundef nonnull align 8 dereferenceable(32) %13) #3
  br label %101

101:                                              ; preds = %100, %63
  call void @_ZNSt7__cxx1112basic_stringIcSt11char_traitsIcESaIcEED1Ev(ptr noundef nonnull align 8 dereferenceable(32) %14) #3
  br label %102

102:                                              ; preds = %101, %59
  call void @_ZNSt7__cxx1112basic_stringIcSt11char_traitsIcESaIcEED1Ev(ptr noundef nonnull align 8 dereferenceable(32) %15) #3
  br label %103

103:                                              ; preds = %102, %55
  %104 = load i1, ptr %21, align 1
  br i1 %104, label %105, label %106

105:                                              ; preds = %103
  call void @__cxa_free_exception(ptr %39) #3
  br label %106

106:                                              ; preds = %105, %103
  invoke void @__cxa_end_catch()
          to label %107 unwind label %114

107:                                              ; preds = %106
  br label %109

108:                                              ; preds = %27
  ret void

109:                                              ; preds = %107, %32
  %110 = load ptr, ptr %7, align 8
  %111 = load i32, ptr %8, align 4
  %112 = insertvalue { ptr, i32 } poison, ptr %110, 0
  %113 = insertvalue { ptr, i32 } %112, i32 %111, 1
  resume { ptr, i32 } %113

114:                                              ; preds = %106
  %115 = landingpad { ptr, i32 }
          catch ptr null
  %116 = extractvalue { ptr, i32 } %115, 0
  call void @__clang_call_terminate(ptr %116) #16
  unreachable

117:                                              ; preds = %54
  unreachable
}